target datalayout = "e-m:e-p270:32:32-p271:32:32-p272:64:64-i64:64-i128:128-f80:128-n8:16:32:64-S128"
target triple = "x86_64-pc-linux-gnu"

%struct.ImVec2 = type { float, float }
%struct.ImVec4 = type { float, float, float, float }
%struct.ImDrawListSharedData = type <{ %struct.ImVec2, ptr, ptr, float, float, float, float, float, i32, %struct.ImVec4, %struct.ImVector, [48 x %struct.ImVec2], float, [64 x i8], [4 x i8] }>
%struct.ImVector = type { i32, i32, ptr }
%struct.ImDrawList = type { %struct.ImVector.0, %struct.ImVector.1, %struct.ImVector.2, i32, i32, ptr, ptr, ptr, %struct.ImVector, %struct.ImDrawCmdHeader, %struct.ImDrawListSplitter, %struct.ImVector.4, %struct.ImVector.5, %struct.ImVector.6, float, ptr }
%struct.ImVector.0 = type { i32, i32, ptr }
%struct.ImVector.1 = type { i32, i32, ptr }
%struct.ImVector.2 = type { i32, i32, ptr }
%struct.ImDrawCmdHeader = type <{ %struct.ImVec4, i64, i32, [4 x i8] }>
%struct.ImDrawListSplitter = type { i32, i32, %struct.ImVector.3 }
%struct.ImVector.3 = type { i32, i32, ptr }
%struct.ImVector.4 = type { i32, i32, ptr }
%struct.ImVector.5 = type { i32, i32, ptr }
%struct.ImVector.6 = type { i32, i32, ptr }

; Function Attrs: inlinehint mustprogress nounwind uwtable
define internal noundef float @_ZL5ImMinIfET_S0_S0_(float noundef %0, float noundef %1) #7 {
  %3 = alloca float, align 4
  %4 = alloca float, align 4
  store float %0, ptr %3, align 4, !tbaa !11
  store float %1, ptr %4, align 4, !tbaa !11
  %5 = load float, ptr %3, align 4, !tbaa !11
  %6 = load float, ptr %4, align 4, !tbaa !11
  %7 = fcmp olt float %5, %6
  br i1 %7, label %8, label %10

8:                                                ; preds = %2
  %9 = load float, ptr %3, align 4, !tbaa !11
  br label %12

10:                                               ; preds = %2
  %11 = load float, ptr %4, align 4, !tbaa !11
  br label %12

12:                                               ; preds = %10, %8
  %13 = phi float [ %9, %8 ], [ %11, %10 ]
  ret float %13
}

; Function Attrs: inlinehint mustprogress nounwind uwtable
define internal noundef float @_ZL5ImMaxIfET_S0_S0_(float noundef %0, float noundef %1) #7 {
  %3 = alloca float, align 4
  %4 = alloca float, align 4
  store float %0, ptr %3, align 4, !tbaa !11
  store float %1, ptr %4, align 4, !tbaa !11
  %5 = load float, ptr %3, align 4, !tbaa !11
  %6 = load float, ptr %4, align 4, !tbaa !11
  %7 = fcmp oge float %5, %6
  br i1 %7, label %8, label %10

8:                                                ; preds = %2
  %9 = load float, ptr %3, align 4, !tbaa !11
  br label %12

10:                                               ; preds = %2
  %11 = load float, ptr %4, align 4, !tbaa !11
  br label %12

12:                                               ; preds = %10, %8
  %13 = phi float [ %9, %8 ], [ %11, %10 ]
  ret float %13
}

; Function Attrs: mustprogress uwtable
define void @_ZN10ImDrawList7AddTextEP6ImFontfRK6ImVec2jPKcS6_fPK6ImVec4(ptr noundef nonnull align 8 dereferenceable(216) %0, ptr noundef %1, float noundef %2, ptr noundef nonnull align 4 dereferenceable(8) %3, i32 noundef %4, ptr noundef %5, ptr noundef %6, float noundef %7, ptr noundef %8) #6 align 2 {
  %10 = alloca ptr, align 8
  %11 = alloca ptr, align 8
  %12 = alloca float, align 4
  %13 = alloca ptr, align 8
  %14 = alloca i32, align 4
  %15 = alloca ptr, align 8
  %16 = alloca ptr, align 8
  %17 = alloca float, align 4
  %18 = alloca ptr, align 8
  %19 = alloca %struct.ImVec4, align 4
  store ptr %0, ptr %10, align 8, !tbaa !43
  store ptr %1, ptr %11, align 8, !tbaa !185
  store float %2, ptr %12, align 4, !tbaa !11
  store ptr %3, ptr %13, align 8, !tbaa !33
  store i32 %4, ptr %14, align 4, !tbaa !27
  store ptr %5, ptr %15, align 8, !tbaa !186
  store ptr %6, ptr %16, align 8, !tbaa !186
  store float %7, ptr %17, align 4, !tbaa !11
  store ptr %8, ptr %18, align 8, !tbaa !8
  %20 = load ptr, ptr %10, align 8
  %21 = load i32, ptr %14, align 4, !tbaa !27
  %22 = and i32 %21, -16777216
  %23 = icmp eq i32 %22, 0
  br i1 %23, label %24, label %25

24:                                               ; preds = %9
  br label %96

25:                                               ; preds = %9
  %26 = load ptr, ptr %15, align 8, !tbaa !186
  %27 = load ptr, ptr %16, align 8, !tbaa !186
  %28 = icmp eq ptr %26, %27
  br i1 %28, label %35, label %29

29:                                               ; preds = %25
  %30 = load ptr, ptr %15, align 8, !tbaa !186
  %31 = getelementptr inbounds i8, ptr %30, i64 0
  %32 = load i8, ptr %31, align 1, !tbaa !41
  %33 = sext i8 %32 to i32
  %34 = icmp eq i32 %33, 0
  br i1 %34, label %35, label %36

35:                                               ; preds = %29, %25
  br label %96

36:                                               ; preds = %29
  %37 = load ptr, ptr %11, align 8, !tbaa !185
  %38 = icmp eq ptr %37, null
  br i1 %38, label %39, label %44

39:                                               ; preds = %36
  %40 = getelementptr inbounds nuw %struct.ImDrawList, ptr %20, i32 0, i32 5
  %41 = load ptr, ptr %40, align 8, !tbaa !45
  %42 = getelementptr inbounds nuw %struct.ImDrawListSharedData, ptr %41, i32 0, i32 2
  %43 = load ptr, ptr %42, align 8, !tbaa !187
  store ptr %43, ptr %11, align 8, !tbaa !185
  br label %44

44:                                               ; preds = %39, %36
  %45 = load float, ptr %12, align 4, !tbaa !11
  %46 = fcmp oeq float %45, 0.000000e+00
  br i1 %46, label %47, label %52

47:                                               ; preds = %44
  %48 = getelementptr inbounds nuw %struct.ImDrawList, ptr %20, i32 0, i32 5
  %49 = load ptr, ptr %48, align 8, !tbaa !45
  %50 = getelementptr inbounds nuw %struct.ImDrawListSharedData, ptr %49, i32 0, i32 3
  %51 = load float, ptr %50, align 8, !tbaa !188
  store float %51, ptr %12, align 4, !tbaa !11
  br label %52

52:                                               ; preds = %47, %44
  call void @llvm.lifetime.start.p0(i64 16, ptr %19) #17
  %53 = getelementptr inbounds nuw %struct.ImDrawList, ptr %20, i32 0, i32 9
  %54 = getelementptr inbounds nuw %struct.ImDrawCmdHeader, ptr %53, i32 0, i32 0
  call void @llvm.memcpy.p0.p0.i64(ptr align 4 %19, ptr align 8 %54, i64 16, i1 false), !tbaa.struct !10
  %55 = load ptr, ptr %18, align 8, !tbaa !8
  %56 = icmp ne ptr %55, null
  br i1 %56, label %57, label %86

57:                                               ; preds = %52
  %58 = getelementptr inbounds nuw %struct.ImVec4, ptr %19, i32 0, i32 0
  %59 = load float, ptr %58, align 4, !tbaa !13
  %60 = load ptr, ptr %18, align 8, !tbaa !8
  %61 = getelementptr inbounds nuw %struct.ImVec4, ptr %60, i32 0, i32 0
  %62 = load float, ptr %61, align 4, !tbaa !13
  %63 = call noundef float @_ZL5ImMaxIfET_S0_S0_(float noundef %59, float noundef %62)
  %64 = getelementptr inbounds nuw %struct.ImVec4, ptr %19, i32 0, i32 0
  store float %63, ptr %64, align 4, !tbaa !13
  %65 = getelementptr inbounds nuw %struct.ImVec4, ptr %19, i32 0, i32 1
  %66 = load float, ptr %65, align 4, !tbaa !15
  %67 = load ptr, ptr %18, align 8, !tbaa !8
  %68 = getelementptr inbounds nuw %struct.ImVec4, ptr %67, i32 0, i32 1
  %69 = load float, ptr %68, align 4, !tbaa !15
  %70 = call noundef float @_ZL5ImMaxIfET_S0_S0_(float noundef %66, float noundef %69)
  %71 = getelementptr inbounds nuw %struct.ImVec4, ptr %19, i32 0, i32 1
  store float %70, ptr %71, align 4, !tbaa !15
  %72 = getelementptr inbounds nuw %struct.ImVec4, ptr %19, i32 0, i32 2
  %73 = load float, ptr %72, align 4, !tbaa !16
  %74 = load ptr, ptr %18, align 8, !tbaa !8
  %75 = getelementptr inbounds nuw %struct.ImVec4, ptr %74, i32 0, i32 2
  %76 = load float, ptr %75, align 4, !tbaa !16
  %77 = call noundef float @_ZL5ImMinIfET_S0_S0_(float noundef %73, float noundef %76)
  %78 = getelementptr inbounds nuw %struct.ImVec4, ptr %19, i32 0, i32 2
  store float %77, ptr %78, align 4, !tbaa !16
  %79 = getelementptr inbounds nuw %struct.ImVec4, ptr %19, i32 0, i32 3
  %80 = load float, ptr %79, align 4, !tbaa !17
  %81 = load ptr, ptr %18, align 8, !tbaa !8
  %82 = getelementptr inbounds nuw %struct.ImVec4, ptr %81, i32 0, i32 3
  %83 = load float, ptr %82, align 4, !tbaa !17
  %84 = call noundef float @_ZL5ImMinIfET_S0_S0_(float noundef %80, float noundef %83)
  %85 = getelementptr inbounds nuw %struct.ImVec4, ptr %19, i32 0, i32 3
  store float %84, ptr %85, align 4, !tbaa !17
  br label %86

86:                                               ; preds = %57, %52
  %87 = load ptr, ptr %11, align 8, !tbaa !185
  %88 = load float, ptr %12, align 4, !tbaa !11
  %89 = load ptr, ptr %13, align 8, !tbaa !33
  %90 = load i32, ptr %14, align 4, !tbaa !27
  %91 = load ptr, ptr %15, align 8, !tbaa !186
  %92 = load ptr, ptr %16, align 8, !tbaa !186
  %93 = load float, ptr %17, align 4, !tbaa !11
  %94 = load ptr, ptr %18, align 8, !tbaa !8
  %95 = icmp ne ptr %94, null
  call void @_ZN6ImFont10RenderTextEP10ImDrawListfRK6ImVec2jRK6ImVec4PKcS9_fb(ptr noundef nonnull align 8 dereferenceable(114) %87, ptr noundef %20, float noundef %88, ptr noundef nonnull align 4 dereferenceable(8) %89, i32 noundef %90, ptr noundef nonnull align 4 dereferenceable(16) %19, ptr noundef %91, ptr noundef %92, float noundef %93, i1 noundef zeroext %95)
  call void @llvm.lifetime.end.p0(i64 16, ptr %19) #17
  br label %96

96:                                               ; preds = %86, %35, %24
  ret void
}