; Function Attrs: mustprogress uwtable
define void @_ZN10ImDrawList7AddTextEP6ImFontfRK6ImVec2jPKcS6_fPK6ImVec4(ptr noundef nonnull align 8 captures(none) dereferenceable(216) %0, ptr noundef readonly %1, float noundef %2, ptr noundef nonnull readonly align 4 captures(none) dereferenceable(8) %3, i32 noundef %4, ptr noundef %5, ptr noundef %6, float noundef %7, ptr noundef readonly %8) local_unnamed_addr #12 align 2 {
  %10 = alloca %struct.ImVec4, align 4
  %11 = icmp ult i32 %4, 16777216
  %12 = icmp eq ptr %5, %6
  %or.cond = or i1 %11, %12
  br i1 %or.cond, label %57, label %13

13:                                               ; preds = %9
  %14 = load i8, ptr %5, align 1, !tbaa !23
  %15 = icmp eq i8 %14, 0
  br i1 %15, label %57, label %16

16:                                               ; preds = %13
  %17 = icmp eq ptr %1, null
  br i1 %17, label %18, label %23

18:                                               ; preds = %16
  %19 = getelementptr inbounds nuw i8, ptr %0, i64 56
  %20 = load ptr, ptr %19, align 8, !tbaa !25
  %21 = getelementptr inbounds nuw i8, ptr %20, i64 16
  %22 = load ptr, ptr %21, align 8, !tbaa !143
  br label %23

23:                                               ; preds = %18, %16
  %.0 = phi ptr [ %22, %18 ], [ %1, %16 ]
  %24 = fcmp oeq float %2, 0.000000e+00
  br i1 %24, label %25, label %30

25:                                               ; preds = %23
  %26 = getelementptr inbounds nuw i8, ptr %0, i64 56
  %27 = load ptr, ptr %26, align 8, !tbaa !25
  %28 = getelementptr inbounds nuw i8, ptr %27, i64 24
  %29 = load float, ptr %28, align 8, !tbaa !144
  br label %30

30:                                               ; preds = %25, %23
  %.019 = phi float [ %29, %25 ], [ %2, %23 ]
  call void @llvm.lifetime.start.p0(i64 16, ptr nonnull %10) #42
  %31 = getelementptr inbounds nuw i8, ptr %0, i64 96
  call void @llvm.memcpy.p0.p0.i64(ptr noundef nonnull align 4 dereferenceable(16) %10, ptr noundef nonnull align 8 dereferenceable(16) %31, i64 16, i1 false), !tbaa.struct !7
  %32 = icmp ne ptr %8, null
  br i1 %32, label %33, label %56

33:                                               ; preds = %30
  %34 = load float, ptr %10, align 4, !tbaa !145
  %35 = load float, ptr %8, align 4, !tbaa !145
  %36 = fcmp oge float %34, %35
  %37 = select i1 %36, float %34, float %35
  store float %37, ptr %10, align 4, !tbaa !145
  %38 = getelementptr inbounds nuw i8, ptr %10, i64 4
  %39 = load float, ptr %38, align 4, !tbaa !146
  %40 = getelementptr inbounds nuw i8, ptr %8, i64 4
  %41 = load float, ptr %40, align 4, !tbaa !146
  %42 = fcmp oge float %39, %41
  %43 = select i1 %42, float %39, float %41
  store float %43, ptr %38, align 4, !tbaa !146
  %44 = getelementptr inbounds nuw i8, ptr %10, i64 8
  %45 = load float, ptr %44, align 4, !tbaa !147
  %46 = getelementptr inbounds nuw i8, ptr %8, i64 8
  %47 = load float, ptr %46, align 4, !tbaa !147
  %48 = fcmp olt float %45, %47
  %49 = select i1 %48, float %45, float %47
  store float %49, ptr %44, align 4, !tbaa !147
  %50 = getelementptr inbounds nuw i8, ptr %10, i64 12
  %51 = load float, ptr %50, align 4, !tbaa !148
  %52 = getelementptr inbounds nuw i8, ptr %8, i64 12
  %53 = load float, ptr %52, align 4, !tbaa !148
  %54 = fcmp olt float %51, %53
  %55 = select i1 %54, float %51, float %53
  store float %55, ptr %50, align 4, !tbaa !148
  br label %56

56:                                               ; preds = %33, %30
  call void @_ZN6ImFont10RenderTextEP10ImDrawListfRK6ImVec2jRK6ImVec4PKcS9_fb(ptr noundef nonnull align 8 dereferenceable(114) %.0, ptr noundef nonnull %0, float noundef %.019, ptr noundef nonnull align 4 dereferenceable(8) %3, i32 noundef %4, ptr noundef nonnull align 4 dereferenceable(16) %10, ptr noundef nonnull %5, ptr noundef %6, float noundef %7, i1 noundef zeroext %32)
  call void @llvm.lifetime.end.p0(i64 16, ptr nonnull %10) #42
  br label %57

57:                                               ; preds = %13, %9, %56
  ret void
}